Certificate:
    Data:
        Version: 3 (0x2)
        Serial Number: 4 (0x4)
        Signature Algorithm: sha1WithRSAEncryption
        Issuer: C=HU, ST=Pest, L=Budapest, O=Mobile-RC Test, OU=Test certificate, CN=Mobile-RC Test CA/emailAddress=info@mobilerc.test
        Validity
            Not Before: Sep 29 23:44:06 2012 GMT
            Not After : Sep 27 23:44:06 2022 GMT
        Subject: C=HU, ST=Pest, L=Budapest, O=Mobile-RC Test, OU=Test certificate, CN=controller/emailAddress=info@mobilerc.test
        Subject Public Key Info:
            Public Key Algorithm: rsaEncryption
            RSA Public Key: (1024 bit)
                Modulus (1024 bit):
                    00:ad:88:d5:86:62:fd:25:37:4d:ab:30:0f:60:e3:
                    e0:ae:ef:fd:e2:6f:ea:d0:bc:0d:10:6d:d6:f0:32:
                    a8:b5:e4:c5:c5:f7:12:ea:a0:c6:4f:5c:2d:fb:f2:
                    c5:81:1c:18:f8:64:09:e3:c6:ac:7d:0c:4d:55:b8:
                    da:f7:c2:f5:49:44:b8:f0:66:9a:7d:26:e7:31:c0:
                    ad:db:4c:79:1e:3e:5e:b5:4c:e5:d6:4e:be:e2:02:
                    c6:ed:d8:52:32:0b:de:79:40:4a:0d:4f:c3:0b:41:
                    a5:db:ee:ff:60:e8:b2:54:4d:3f:e7:1f:dd:3f:42:
                    64:4a:b9:71:48:db:5d:49:21
                Exponent: 65537 (0x10001)
        X509v3 extensions:
            X509v3 Basic Constraints: 
                CA:FALSE
            Netscape Comment: 
                Easy-RSA Generated Certificate
            X509v3 Subject Key Identifier: 
                58:E4:96:09:0C:C4:28:B2:9A:FB:05:34:F5:10:D0:09:15:6C:2C:93
            X509v3 Authority Key Identifier: 
                keyid:B1:1F:30:D9:42:8B:B2:9E:99:F5:37:5E:BC:70:95:2E:F3:72:10:B3
                DirName:/C=HU/ST=Pest/L=Budapest/O=Mobile-RC Test/OU=Test certificate/CN=Mobile-RC Test CA/emailAddress=info@mobilerc.test
                serial:BD:AA:51:57:35:54:74:CB

            X509v3 Extended Key Usage: 
                TLS Web Client Authentication
            X509v3 Key Usage: 
                Digital Signature
    Signature Algorithm: sha1WithRSAEncryption
        17:49:49:39:ba:d0:ee:79:26:eb:2c:b6:27:df:e8:e6:1e:84:
        39:bb:15:c3:69:6a:56:01:8e:f1:88:4c:2d:1e:2e:c8:d3:8c:
        6c:ae:7f:d3:19:a0:27:f4:60:bd:c2:82:c2:a1:08:74:7a:03:
        d7:b2:1d:6e:df:39:7d:35:7e:7b:dd:54:00:82:ed:5e:d2:8a:
        1d:81:3b:b4:f2:00:09:eb:9d:74:01:92:5b:cc:4c:ed:2a:b9:
        44:42:ca:56:4b:df:1c:9f:f8:11:8c:94:a3:34:fc:b9:f1:3a:
        65:c2:2d:ff:3c:f0:de:8c:53:18:13:d9:96:76:ec:06:34:c2:
        a5:f8
-----BEGIN CERTIFICATE-----
MIIEEDCCA3mgAwIBAgIBBDANBgkqhkiG9w0BAQUFADCBojELMAkGA1UEBhMCSFUx
DTALBgNVBAgTBFBlc3QxETAPBgNVBAcTCEJ1ZGFwZXN0MRcwFQYDVQQKEw5Nb2Jp
bGUtUkMgVGVzdDEZMBcGA1UECxMQVGVzdCBjZXJ0aWZpY2F0ZTEaMBgGA1UEAxMR
TW9iaWxlLVJDIFRlc3QgQ0ExITAfBgkqhkiG9w0BCQEWEmluZm9AbW9iaWxlcmMu
dGVzdDAeFw0xMjA5MjkyMzQ0MDZaFw0yMjA5MjcyMzQ0MDZaMIGbMQswCQYDVQQG
EwJIVTENMAsGA1UECBMEUGVzdDERMA8GA1UEBxMIQnVkYXBlc3QxFzAVBgNVBAoT
Dk1vYmlsZS1SQyBUZXN0MRkwFwYDVQQLExBUZXN0IGNlcnRpZmljYXRlMRMwEQYD
VQQDEwpjb250cm9sbGVyMSEwHwYJKoZIhvcNAQkBFhJpbmZvQG1vYmlsZXJjLnRl
c3QwgZ8wDQYJKoZIhvcNAQEBBQADgY0AMIGJAoGBAK2I1YZi/SU3TaswD2Dj4K7v
/eJv6tC8DRBt1vAyqLXkxcX3Euqgxk9cLfvyxYEcGPhkCePGrH0MTVW42vfC9UlE
uPBmmn0m5zHArdtMeR4+XrVM5dZOvuICxu3YUjIL3nlASg1PwwtBpdvu/2DoslRN
P+cf3T9CZEq5cUjbXUkhAgMBAAGjggFZMIIBVTAJBgNVHRMEAjAAMC0GCWCGSAGG
+EIBDQQgFh5FYXN5LVJTQSBHZW5lcmF0ZWQgQ2VydGlmaWNhdGUwHQYDVR0OBBYE
FFjklgkMxCiymvsFNPUQ0AkVbCyTMIHXBgNVHSMEgc8wgcyAFLEfMNlCi7KemfU3
XrxwlS7zchCzoYGopIGlMIGiMQswCQYDVQQGEwJIVTENMAsGA1UECBMEUGVzdDER
MA8GA1UEBxMIQnVkYXBlc3QxFzAVBgNVBAoTDk1vYmlsZS1SQyBUZXN0MRkwFwYD
VQQLExBUZXN0IGNlcnRpZmljYXRlMRowGAYDVQQDExFNb2JpbGUtUkMgVGVzdCBD
QTEhMB8GCSqGSIb3DQEJARYSaW5mb0Btb2JpbGVyYy50ZXN0ggkAvapRVzVUdMsw
EwYDVR0lBAwwCgYIKwYBBQUHAwIwCwYDVR0PBAQDAgeAMA0GCSqGSIb3DQEBBQUA
A4GBABdJSTm60O55Jusstiff6OYehDm7FcNpalYBjvGITC0eLsjTjGyuf9MZoCf0
YL3CgsKhCHR6A9eyHW7fOX01fnvdVACC7V7Sih2BO7TyAAnrnXQBklvMTO0quURC
ylZL3xyf+BGMlKM0/LnxOmXCLf888N6MUxgT2ZZ27AY0wqX4
-----END CERTIFICATE-----
