Certificate:
    Data:
        Version: 3 (0x2)
        Serial Number: 3 (0x3)
        Signature Algorithm: sha1WithRSAEncryption
        Issuer: C=HU, ST=Pest, L=Budapest, O=Mobile-RC Test, OU=Test certificate, CN=Mobile-RC Test CA/emailAddress=info@mobilerc.test
        Validity
            Not Before: Sep 29 23:43:50 2012 GMT
            Not After : Sep 27 23:43:50 2022 GMT
        Subject: C=HU, ST=Pest, L=Budapest, O=Mobile-RC Test, OU=Test certificate, CN=host2/emailAddress=info@mobilerc.test
        Subject Public Key Info:
            Public Key Algorithm: rsaEncryption
            RSA Public Key: (1024 bit)
                Modulus (1024 bit):
                    00:d7:9d:01:fe:d5:6e:07:10:e3:be:f1:91:a2:3c:
                    ef:38:9b:c4:bf:09:90:ac:62:1c:bf:42:b5:28:94:
                    61:8c:4f:72:dd:49:21:03:5e:91:5a:38:4c:ce:b3:
                    7d:24:b6:91:36:77:02:f3:5e:2c:b7:ad:95:87:6c:
                    1c:e4:23:60:c4:85:18:66:24:b9:81:86:d5:01:31:
                    6e:fe:14:94:c1:1b:29:64:a7:d6:24:8b:cf:0c:a0:
                    10:cd:58:10:a5:02:e4:dd:4c:a2:35:fd:0e:72:09:
                    da:27:22:09:3c:29:77:3c:66:c6:05:9c:07:ae:96:
                    ee:24:3e:15:11:6a:81:04:e5
                Exponent: 65537 (0x10001)
        X509v3 extensions:
            X509v3 Basic Constraints: 
                CA:FALSE
            Netscape Comment: 
                Easy-RSA Generated Certificate
            X509v3 Subject Key Identifier: 
                E7:8E:99:FB:0B:EC:3A:F4:22:E9:E5:BB:FD:77:AA:2F:92:5B:38:65
            X509v3 Authority Key Identifier: 
                keyid:B1:1F:30:D9:42:8B:B2:9E:99:F5:37:5E:BC:70:95:2E:F3:72:10:B3
                DirName:/C=HU/ST=Pest/L=Budapest/O=Mobile-RC Test/OU=Test certificate/CN=Mobile-RC Test CA/emailAddress=info@mobilerc.test
                serial:BD:AA:51:57:35:54:74:CB

            X509v3 Extended Key Usage: 
                TLS Web Client Authentication
            X509v3 Key Usage: 
                Digital Signature
    Signature Algorithm: sha1WithRSAEncryption
        5b:3c:93:00:1a:f9:47:f7:ca:62:be:e9:6d:2e:0c:34:de:14:
        16:f3:be:b1:f3:c8:a9:90:2f:1f:a7:8f:99:54:cb:8f:33:f3:
        df:49:83:05:71:34:b1:62:a4:20:ff:f8:f1:69:a7:70:9a:08:
        77:1c:e5:0c:b9:2b:84:8f:53:43:b7:40:a8:4f:48:62:d9:40:
        c1:02:ec:ae:74:e3:da:1e:11:1f:b2:a3:9b:cf:2f:13:1a:95:
        ba:f9:64:b6:e8:44:78:ec:84:36:b7:64:21:80:78:f8:98:9d:
        0c:6c:37:c2:ac:82:3e:57:19:3c:9f:e1:f3:52:94:d2:1f:09:
        83:8f
-----BEGIN CERTIFICATE-----
MIIECzCCA3SgAwIBAgIBAzANBgkqhkiG9w0BAQUFADCBojELMAkGA1UEBhMCSFUx
DTALBgNVBAgTBFBlc3QxETAPBgNVBAcTCEJ1ZGFwZXN0MRcwFQYDVQQKEw5Nb2Jp
bGUtUkMgVGVzdDEZMBcGA1UECxMQVGVzdCBjZXJ0aWZpY2F0ZTEaMBgGA1UEAxMR
TW9iaWxlLVJDIFRlc3QgQ0ExITAfBgkqhkiG9w0BCQEWEmluZm9AbW9iaWxlcmMu
dGVzdDAeFw0xMjA5MjkyMzQzNTBaFw0yMjA5MjcyMzQzNTBaMIGWMQswCQYDVQQG
EwJIVTENMAsGA1UECBMEUGVzdDERMA8GA1UEBxMIQnVkYXBlc3QxFzAVBgNVBAoT
Dk1vYmlsZS1SQyBUZXN0MRkwFwYDVQQLExBUZXN0IGNlcnRpZmljYXRlMQ4wDAYD
VQQDEwVob3N0MjEhMB8GCSqGSIb3DQEJARYSaW5mb0Btb2JpbGVyYy50ZXN0MIGf
MA0GCSqGSIb3DQEBAQUAA4GNADCBiQKBgQDXnQH+1W4HEOO+8ZGiPO84m8S/CZCs
Yhy/QrUolGGMT3LdSSEDXpFaOEzOs30ktpE2dwLzXiy3rZWHbBzkI2DEhRhmJLmB
htUBMW7+FJTBGylkp9Yki88MoBDNWBClAuTdTKI1/Q5yCdonIgk8KXc8ZsYFnAeu
lu4kPhURaoEE5QIDAQABo4IBWTCCAVUwCQYDVR0TBAIwADAtBglghkgBhvhCAQ0E
IBYeRWFzeS1SU0EgR2VuZXJhdGVkIENlcnRpZmljYXRlMB0GA1UdDgQWBBTnjpn7
C+w69CLp5bv9d6ovkls4ZTCB1wYDVR0jBIHPMIHMgBSxHzDZQouynpn1N168cJUu
83IQs6GBqKSBpTCBojELMAkGA1UEBhMCSFUxDTALBgNVBAgTBFBlc3QxETAPBgNV
BAcTCEJ1ZGFwZXN0MRcwFQYDVQQKEw5Nb2JpbGUtUkMgVGVzdDEZMBcGA1UECxMQ
VGVzdCBjZXJ0aWZpY2F0ZTEaMBgGA1UEAxMRTW9iaWxlLVJDIFRlc3QgQ0ExITAf
BgkqhkiG9w0BCQEWEmluZm9AbW9iaWxlcmMudGVzdIIJAL2qUVc1VHTLMBMGA1Ud
JQQMMAoGCCsGAQUFBwMCMAsGA1UdDwQEAwIHgDANBgkqhkiG9w0BAQUFAAOBgQBb
PJMAGvlH98pivultLgw03hQW876x88ipkC8fp4+ZVMuPM/PfSYMFcTSxYqQg//jx
aadwmgh3HOUMuSuEj1NDt0CoT0hi2UDBAuyudOPaHhEfsqObzy8TGpW6+WS26ER4
7IQ2t2QhgHj4mJ0MbDfCrII+Vxk8n+HzUpTSHwmDjw==
-----END CERTIFICATE-----
