Certificate:
    Data:
        Version: 3 (0x2)
        Serial Number: 1 (0x1)
        Signature Algorithm: sha1WithRSAEncryption
        Issuer: C=HU, ST=Pest, L=Budapest, O=Mobile-RC Test, OU=Test certificate, CN=Mobile-RC Test CA/emailAddress=info@mobilerc.test
        Validity
            Not Before: Sep 29 23:42:57 2012 GMT
            Not After : Sep 27 23:42:57 2022 GMT
        Subject: C=HU, ST=Pest, L=Budapest, O=Mobile-RC Test, OU=Test certificate, CN=bridge/emailAddress=info@mobilerc.test
        Subject Public Key Info:
            Public Key Algorithm: rsaEncryption
            RSA Public Key: (1024 bit)
                Modulus (1024 bit):
                    00:c4:a4:c0:95:a7:2e:08:f9:b9:fa:3f:c7:4d:ea:
                    6f:a1:9b:3c:e0:74:bb:9c:e6:d5:5d:03:1f:8e:c7:
                    fb:03:c8:72:f4:4d:4b:8b:6e:7d:8b:b8:58:12:65:
                    ee:5a:7b:e3:3e:dd:75:6d:b3:7b:d0:cd:f1:6e:6d:
                    45:36:88:cb:c7:f7:1d:2e:76:2f:73:5a:4b:e9:d2:
                    2d:e5:c3:25:fb:a4:a9:da:25:4b:34:94:61:1a:96:
                    3a:22:63:fc:12:78:74:1c:60:c8:2d:66:5a:70:84:
                    44:ea:42:8b:72:2c:c7:65:ff:0f:54:ca:93:92:6b:
                    f1:97:77:3f:a6:a6:1e:78:53
                Exponent: 65537 (0x10001)
        X509v3 extensions:
            X509v3 Basic Constraints: 
                CA:FALSE
            Netscape Cert Type: 
                SSL Server
            Netscape Comment: 
                Easy-RSA Generated Server Certificate
            X509v3 Subject Key Identifier: 
                11:FF:0E:2E:9A:CC:EF:F6:1C:A9:B3:93:E3:42:15:EA:E5:6B:CF:AB
            X509v3 Authority Key Identifier: 
                keyid:B1:1F:30:D9:42:8B:B2:9E:99:F5:37:5E:BC:70:95:2E:F3:72:10:B3
                DirName:/C=HU/ST=Pest/L=Budapest/O=Mobile-RC Test/OU=Test certificate/CN=Mobile-RC Test CA/emailAddress=info@mobilerc.test
                serial:BD:AA:51:57:35:54:74:CB

            X509v3 Extended Key Usage: 
                TLS Web Server Authentication
            X509v3 Key Usage: 
                Digital Signature, Key Encipherment
    Signature Algorithm: sha1WithRSAEncryption
        7a:62:bf:89:54:e0:cb:cc:c6:cf:1c:16:32:63:84:4b:18:bd:
        35:a5:40:df:32:eb:87:98:8f:6e:91:82:4c:63:78:0c:09:78:
        3e:d9:50:07:6e:ae:04:3b:d5:11:6f:73:aa:70:d7:a8:e9:04:
        eb:63:72:ad:99:a9:7f:d3:61:9d:5e:4f:e7:40:88:79:b9:a5:
        46:99:fb:28:c5:fd:d4:de:90:23:2b:89:1f:4e:45:ea:f1:a4:
        06:38:09:92:48:5b:f5:46:5e:f3:cc:2f:6c:67:eb:95:62:8f:
        7e:1b:c3:62:15:18:2f:44:37:6c:00:39:13:3c:5e:dc:d6:3f:
        d1:2a
-----BEGIN CERTIFICATE-----
MIIEJjCCA4+gAwIBAgIBATANBgkqhkiG9w0BAQUFADCBojELMAkGA1UEBhMCSFUx
DTALBgNVBAgTBFBlc3QxETAPBgNVBAcTCEJ1ZGFwZXN0MRcwFQYDVQQKEw5Nb2Jp
bGUtUkMgVGVzdDEZMBcGA1UECxMQVGVzdCBjZXJ0aWZpY2F0ZTEaMBgGA1UEAxMR
TW9iaWxlLVJDIFRlc3QgQ0ExITAfBgkqhkiG9w0BCQEWEmluZm9AbW9iaWxlcmMu
dGVzdDAeFw0xMjA5MjkyMzQyNTdaFw0yMjA5MjcyMzQyNTdaMIGXMQswCQYDVQQG
EwJIVTENMAsGA1UECBMEUGVzdDERMA8GA1UEBxMIQnVkYXBlc3QxFzAVBgNVBAoT
Dk1vYmlsZS1SQyBUZXN0MRkwFwYDVQQLExBUZXN0IGNlcnRpZmljYXRlMQ8wDQYD
VQQDEwZicmlkZ2UxITAfBgkqhkiG9w0BCQEWEmluZm9AbW9iaWxlcmMudGVzdDCB
nzANBgkqhkiG9w0BAQEFAAOBjQAwgYkCgYEAxKTAlacuCPm5+j/HTepvoZs84HS7
nObVXQMfjsf7A8hy9E1Li259i7hYEmXuWnvjPt11bbN70M3xbm1FNojLx/cdLnYv
c1pL6dIt5cMl+6Sp2iVLNJRhGpY6ImP8Enh0HGDILWZacIRE6kKLcizHZf8PVMqT
kmvxl3c/pqYeeFMCAwEAAaOCAXMwggFvMAkGA1UdEwQCMAAwEQYJYIZIAYb4QgEB
BAQDAgZAMDQGCWCGSAGG+EIBDQQnFiVFYXN5LVJTQSBHZW5lcmF0ZWQgU2VydmVy
IENlcnRpZmljYXRlMB0GA1UdDgQWBBQR/w4umszv9hyps5PjQhXq5WvPqzCB1wYD
VR0jBIHPMIHMgBSxHzDZQouynpn1N168cJUu83IQs6GBqKSBpTCBojELMAkGA1UE
BhMCSFUxDTALBgNVBAgTBFBlc3QxETAPBgNVBAcTCEJ1ZGFwZXN0MRcwFQYDVQQK
Ew5Nb2JpbGUtUkMgVGVzdDEZMBcGA1UECxMQVGVzdCBjZXJ0aWZpY2F0ZTEaMBgG
A1UEAxMRTW9iaWxlLVJDIFRlc3QgQ0ExITAfBgkqhkiG9w0BCQEWEmluZm9AbW9i
aWxlcmMudGVzdIIJAL2qUVc1VHTLMBMGA1UdJQQMMAoGCCsGAQUFBwMBMAsGA1Ud
DwQEAwIFoDANBgkqhkiG9w0BAQUFAAOBgQB6Yr+JVODLzMbPHBYyY4RLGL01pUDf
MuuHmI9ukYJMY3gMCXg+2VAHbq4EO9URb3OqcNeo6QTrY3Ktmal/02GdXk/nQIh5
uaVGmfsoxf3U3pAjK4kfTkXq8aQGOAmSSFv1Rl7zzC9sZ+uVYo9+G8NiFRgvRDds
ADkTPF7c1j/RKg==
-----END CERTIFICATE-----
